target datalayout = "e-m:e-p270:32:32-p271:32:32-p272:64:64-i64:64-i128:128-f80:128-n8:16:32:64-S128"
target triple = "x86_64-pc-linux-gnu"

%"class.llvm::DependenceInfo" = type <{ ptr, ptr, ptr, ptr, i32, i32, i32, [4 x i8] }>

; Function Attrs: mustprogress nounwind uwtable
define dso_local noundef ptr @_ZNK4llvm14DependenceInfo17collectUpperBoundEPKNS_4LoopEPNS_4TypeE(ptr noundef nonnull align 8 dereferenceable(44) %0, ptr noundef %1, ptr noundef %2) #1 align 2 {
  %4 = alloca ptr, align 8
  %5 = alloca ptr, align 8
  %6 = alloca ptr, align 8
  %7 = alloca ptr, align 8
  %8 = alloca ptr, align 8
  store ptr %0, ptr %5, align 8
  store ptr %1, ptr %6, align 8
  store ptr %2, ptr %7, align 8
  %9 = load ptr, ptr %5, align 8
  %10 = getelementptr inbounds nuw %"class.llvm::DependenceInfo", ptr %9, i32 0, i32 1
  %11 = load ptr, ptr %10, align 8
  %12 = load ptr, ptr %6, align 8
  %13 = call noundef zeroext i1 @_ZN4llvm15ScalarEvolution34hasLoopInvariantBackedgeTakenCountEPKNS_4LoopE(ptr noundef nonnull align 8 dereferenceable(1392) %11, ptr noundef %12)
  br i1 %13, label %14, label %24

14:                                               ; preds = %3
  %15 = getelementptr inbounds nuw %"class.llvm::DependenceInfo", ptr %9, i32 0, i32 1
  %16 = load ptr, ptr %15, align 8
  %17 = load ptr, ptr %6, align 8
  %18 = call noundef ptr @_ZN4llvm15ScalarEvolution21getBackedgeTakenCountEPKNS_4LoopENS0_13ExitCountKindE(ptr noundef nonnull align 8 dereferenceable(1392) %16, ptr noundef %17, i32 noundef 0)
  store ptr %18, ptr %8, align 8
  %19 = getelementptr inbounds nuw %"class.llvm::DependenceInfo", ptr %9, i32 0, i32 1
  %20 = load ptr, ptr %19, align 8
  %21 = load ptr, ptr %8, align 8
  %22 = load ptr, ptr %7, align 8
  %23 = call noundef ptr @_ZN4llvm15ScalarEvolution23getTruncateOrZeroExtendEPKNS_4SCEVEPNS_4TypeEj(ptr noundef nonnull align 8 dereferenceable(1392) %20, ptr noundef %21, ptr noundef %22, i32 noundef 0)
  store ptr %23, ptr %4, align 8
  br label %25

24:                                               ; preds = %3
  store ptr null, ptr %4, align 8
  br label %25

25:                                               ; preds = %24, %14
  %26 = load ptr, ptr %4, align 8
  ret ptr %26
}