; Function Attrs: mustprogress nounwind uwtable
define dso_local noundef ptr @_ZNK4llvm14DependenceInfo17collectUpperBoundEPKNS_4LoopEPNS_4TypeE(ptr nocapture noundef nonnull readonly align 8 dereferenceable(44) %0, ptr noundef %1, ptr noundef %2) local_unnamed_addr #0 align 2 {
  %4 = getelementptr inbounds nuw i8, ptr %0, i64 8
  %5 = load ptr, ptr %4, align 8
  %6 = tail call noundef zeroext i1 @_ZN4llvm15ScalarEvolution34hasLoopInvariantBackedgeTakenCountEPKNS_4LoopE(ptr noundef nonnull align 8 dereferenceable(1392) %5, ptr noundef %1) #23
  br i1 %6, label %7, label %12

7:                                                ; preds = %3
  %8 = load ptr, ptr %4, align 8
  %9 = tail call noundef ptr @_ZN4llvm15ScalarEvolution21getBackedgeTakenCountEPKNS_4LoopENS0_13ExitCountKindE(ptr noundef nonnull align 8 dereferenceable(1392) %8, ptr noundef %1, i32 noundef 0) #23
  %10 = load ptr, ptr %4, align 8
  %11 = tail call noundef ptr @_ZN4llvm15ScalarEvolution23getTruncateOrZeroExtendEPKNS_4SCEVEPNS_4TypeEj(ptr noundef nonnull align 8 dereferenceable(1392) %10, ptr noundef %9, ptr noundef %2, i32 noundef 0) #23
  br label %12

12:                                               ; preds = %3, %7
  %.0 = phi ptr [ %11, %7 ], [ null, %3 ]
  ret ptr %.0
}